target datalayout = "e-m:e-p270:32:32-p271:32:32-p272:64:64-i64:64-i128:128-f80:128-n8:16:32:64-S128"
target triple = "x86_64-pc-linux-gnu"

%"class.ZXing::Pdf417::BoundingBox" = type { i32, i32, %"class.ZXing::Nullable", %"class.ZXing::Nullable", %"class.ZXing::Nullable", %"class.ZXing::Nullable", i32, i32, i32, i32 }
%"class.ZXing::Nullable" = type { i8, %"class.ZXing::ResultPoint" }
%"class.ZXing::ResultPoint" = type { %"struct.ZXing::PointT" }
%"struct.ZXing::PointT" = type { double, double }

; Function Attrs: mustprogress nounwind uwtable
define linkonce_odr void @_ZN5ZXing6PointTIdEC2Ev(ptr noundef nonnull align 8 dereferenceable(16) %0) unnamed_addr #0 comdat align 2 {
  %2 = alloca ptr, align 8
  store ptr %0, ptr %2, align 8, !tbaa !42
  %3 = load ptr, ptr %2, align 8
  %4 = getelementptr inbounds nuw %"struct.ZXing::PointT", ptr %3, i32 0, i32 0
  store double 0.000000e+00, ptr %4, align 8, !tbaa !36
  %5 = getelementptr inbounds nuw %"struct.ZXing::PointT", ptr %3, i32 0, i32 1
  store double 0.000000e+00, ptr %5, align 8, !tbaa !33
  ret void
}

; Function Attrs: mustprogress nounwind uwtable
define linkonce_odr void @_ZN5ZXing11ResultPointC2Ev(ptr noundef nonnull align 8 dereferenceable(16) %0) unnamed_addr #0 comdat align 2 {
  %2 = alloca ptr, align 8
  store ptr %0, ptr %2, align 8, !tbaa !31
  %3 = load ptr, ptr %2, align 8
  call void @_ZN5ZXing6PointTIdEC2Ev(ptr noundef nonnull align 8 dereferenceable(16) %3) #5
  ret void
}

; Function Attrs: mustprogress nounwind uwtable
define linkonce_odr void @_ZN5ZXing8NullableINS_11ResultPointEEC2Ev(ptr noundef nonnull align 8 dereferenceable(24) %0) unnamed_addr #0 comdat align 2 {
  %2 = alloca ptr, align 8
  store ptr %0, ptr %2, align 8, !tbaa !21
  %3 = load ptr, ptr %2, align 8
  %4 = getelementptr inbounds nuw %"class.ZXing::Nullable", ptr %3, i32 0, i32 0
  store i8 0, ptr %4, align 8, !tbaa !23
  %5 = getelementptr inbounds nuw %"class.ZXing::Nullable", ptr %3, i32 0, i32 1
  call void @_ZN5ZXing11ResultPointC2Ev(ptr noundef nonnull align 8 dereferenceable(16) %5) #5
  ret void
}

; Function Attrs: mustprogress nounwind uwtable
define void @_ZN5ZXing6Pdf41711BoundingBoxC2Ev(ptr noundef nonnull align 8 dereferenceable(120) %0) unnamed_addr #0 align 2 {
  %2 = alloca ptr, align 8
  store ptr %0, ptr %2, align 8, !tbaa !3
  %3 = load ptr, ptr %2, align 8
  %4 = getelementptr inbounds nuw %"class.ZXing::Pdf417::BoundingBox", ptr %3, i32 0, i32 2
  call void @_ZN5ZXing8NullableINS_11ResultPointEEC2Ev(ptr noundef nonnull align 8 dereferenceable(24) %4) #5
  %5 = getelementptr inbounds nuw %"class.ZXing::Pdf417::BoundingBox", ptr %3, i32 0, i32 3
  call void @_ZN5ZXing8NullableINS_11ResultPointEEC2Ev(ptr noundef nonnull align 8 dereferenceable(24) %5) #5
  %6 = getelementptr inbounds nuw %"class.ZXing::Pdf417::BoundingBox", ptr %3, i32 0, i32 4
  call void @_ZN5ZXing8NullableINS_11ResultPointEEC2Ev(ptr noundef nonnull align 8 dereferenceable(24) %6) #5
  %7 = getelementptr inbounds nuw %"class.ZXing::Pdf417::BoundingBox", ptr %3, i32 0, i32 5
  call void @_ZN5ZXing8NullableINS_11ResultPointEEC2Ev(ptr noundef nonnull align 8 dereferenceable(24) %7) #5
  %8 = getelementptr inbounds nuw %"class.ZXing::Pdf417::BoundingBox", ptr %3, i32 0, i32 9
  store i32 0, ptr %8, align 4, !tbaa !8
  %9 = getelementptr inbounds nuw %"class.ZXing::Pdf417::BoundingBox", ptr %3, i32 0, i32 8
  store i32 0, ptr %9, align 8, !tbaa !16
  %10 = getelementptr inbounds nuw %"class.ZXing::Pdf417::BoundingBox", ptr %3, i32 0, i32 7
  store i32 0, ptr %10, align 4, !tbaa !17
  %11 = getelementptr inbounds nuw %"class.ZXing::Pdf417::BoundingBox", ptr %3, i32 0, i32 6
  store i32 0, ptr %11, align 8, !tbaa !18
  %12 = getelementptr inbounds nuw %"class.ZXing::Pdf417::BoundingBox", ptr %3, i32 0, i32 1
  store i32 0, ptr %12, align 4, !tbaa !19
  %13 = getelementptr inbounds nuw %"class.ZXing::Pdf417::BoundingBox", ptr %3, i32 0, i32 0
  store i32 0, ptr %13, align 8, !tbaa !20
  ret void
}