; Function Attrs: mustprogress nofree norecurse nosync nounwind willreturn memory(argmem: write) uwtable
define void @_ZN5ZXing6Pdf41711BoundingBoxC2Ev(ptr noundef nonnull writeonly align 8 captures(none) dereferenceable(120) initializes((0, 9), (16, 33), (40, 57), (64, 81), (88, 120)) %0) unnamed_addr #0 align 2 {
  %2 = getelementptr inbounds nuw i8, ptr %0, i64 16
  %3 = getelementptr inbounds nuw i8, ptr %0, i64 40
  %4 = getelementptr inbounds nuw i8, ptr %0, i64 64
  %5 = getelementptr inbounds nuw i8, ptr %0, i64 88
  tail call void @llvm.memset.p0.i64(ptr noundef nonnull align 8 dereferenceable(9) %0, i8 0, i64 9, i1 false)
  tail call void @llvm.memset.p0.i64(ptr noundef nonnull align 8 dereferenceable(17) %2, i8 0, i64 17, i1 false)
  tail call void @llvm.memset.p0.i64(ptr noundef nonnull align 8 dereferenceable(17) %3, i8 0, i64 17, i1 false)
  tail call void @llvm.memset.p0.i64(ptr noundef nonnull align 8 dereferenceable(17) %4, i8 0, i64 17, i1 false)
  tail call void @llvm.memset.p0.i64(ptr noundef nonnull align 8 dereferenceable(32) %5, i8 0, i64 32, i1 false)
  ret void
}